; Function Attrs: mustprogress uwtable
define void @_ZN5folly12AsyncTimeout16libeventCallbackEisPv(i32 %0, i16 signext %1, ptr noundef %2) #1 align 2 personality ptr @__gxx_personality_v0 {
  %4 = alloca %"class.std::shared_ptr", align 8
  %5 = alloca %"class.folly::RequestContextScopeGuard", align 8
  %6 = getelementptr inbounds nuw i8, ptr %2, i64 176
  %7 = load ptr, ptr %6, align 8, !tbaa !10
  %8 = load ptr, ptr %7, align 8, !tbaa !7
  %9 = getelementptr inbounds nuw i8, ptr %8, i64 56
  %10 = load ptr, ptr %9, align 8
  tail call void %10(ptr noundef nonnull align 8 dereferenceable(16) %7)
  call void @llvm.lifetime.start.p0(i64 16, ptr nonnull %5) #14
  %11 = getelementptr inbounds nuw i8, ptr %2, i64 184
  call void @llvm.lifetime.start.p0(i64 16, ptr nonnull %4) #14
  call void @_ZN5folly14RequestContext10setContextERKSt10shared_ptrIS0_E(ptr dead_on_unwind nonnull writable sret(%"class.std::shared_ptr") align 8 %4, ptr noundef nonnull align 8 dereferenceable(16) %11)
  %12 = load ptr, ptr %4, align 8, !tbaa !34
  store ptr %12, ptr %5, align 8, !tbaa !34
  %13 = getelementptr inbounds nuw i8, ptr %5, i64 8
  %14 = getelementptr inbounds nuw i8, ptr %4, i64 8
  %15 = load ptr, ptr %14, align 8, !tbaa !35
  store ptr %15, ptr %13, align 8, !tbaa !35
  call void @llvm.lifetime.end.p0(i64 16, ptr nonnull %4) #14
  %16 = load ptr, ptr %2, align 8, !tbaa !7
  %17 = getelementptr inbounds nuw i8, ptr %16, i64 16
  %18 = load ptr, ptr %17, align 8
  call void %18(ptr noundef nonnull align 8 dereferenceable(200) %2) #14
  call void @_ZN5folly29RequestContextSaverScopeGuardD2Ev(ptr noundef nonnull align 8 dereferenceable(16) %5) #14
  call void @llvm.lifetime.end.p0(i64 16, ptr nonnull %5) #14
  ret void
}